; Function Attrs: nounwind uwtable
define noalias noundef ptr @Aig_ManSupportNodes(ptr noundef %0, ptr noundef readonly captures(none) %1) local_unnamed_addr #4 {
  tail call void @Aig_ManSetCioIds(ptr noundef %0) #24
  %3 = getelementptr i8, ptr %1, i64 4
  %.val25 = load i32, ptr %3, align 4, !tbaa !12
  %4 = tail call noalias dereferenceable_or_null(16) ptr @malloc(i64 noundef 16) #23
  %5 = add i32 %.val25, -1
  %or.cond.i = icmp ult i32 %5, 7
  %spec.store.select.i = select i1 %or.cond.i, i32 8, i32 %.val25
  %6 = getelementptr inbounds nuw i8, ptr %4, i64 4
  store i32 0, ptr %6, align 4, !tbaa !12
  store i32 %spec.store.select.i, ptr %4, align 8, !tbaa !14
  %.not.i = icmp eq i32 %spec.store.select.i, 0
  br i1 %.not.i, label %Vec_PtrAlloc.exit, label %7

7:                                                ; preds = %2
  %8 = sext i32 %spec.store.select.i to i64
  %9 = shl nsw i64 %8, 3
  %10 = tail call noalias ptr @malloc(i64 noundef %9) #23
  br label %Vec_PtrAlloc.exit

Vec_PtrAlloc.exit:                                ; preds = %2, %7
  %11 = phi ptr [ %10, %7 ], [ null, %2 ]
  %12 = getelementptr inbounds nuw i8, ptr %4, i64 8
  store ptr %11, ptr %12, align 8, !tbaa !15
  %13 = icmp sgt i32 %.val25, 0
  br i1 %13, label %.lr.ph37, label %.critedge

.lr.ph37:                                         ; preds = %Vec_PtrAlloc.exit
  %14 = getelementptr i8, ptr %1, i64 8
  %15 = getelementptr i8, ptr %0, i64 48
  %16 = getelementptr i8, ptr %0, i64 312
  %17 = getelementptr i8, ptr %0, i64 24
  br label %18

18:                                               ; preds = %.lr.ph37, %Vec_PtrPush.exit
  %19 = phi i32 [ %spec.store.select.i, %.lr.ph37 ], [ %65, %Vec_PtrPush.exit ]
  %20 = phi i32 [ 0, %.lr.ph37 ], [ %67, %Vec_PtrPush.exit ]
  %indvars.iv39 = phi i64 [ 0, %.lr.ph37 ], [ %indvars.iv.next40, %Vec_PtrPush.exit ]
  %.val26 = load ptr, ptr %14, align 8, !tbaa !15
  %21 = getelementptr inbounds nuw ptr, ptr %.val26, i64 %indvars.iv39
  %22 = load ptr, ptr %21, align 8, !tbaa !18
  %23 = tail call noalias dereferenceable_or_null(16) ptr @malloc(i64 noundef 16) #23
  %24 = getelementptr inbounds nuw i8, ptr %23, i64 4
  store i32 0, ptr %24, align 4, !tbaa !33
  store i32 100, ptr %23, align 8, !tbaa !36
  %25 = tail call noalias dereferenceable_or_null(400) ptr @malloc(i64 noundef 400) #23
  %26 = getelementptr inbounds nuw i8, ptr %23, i64 8
  store ptr %25, ptr %26, align 8, !tbaa !37
  tail call void @Aig_ManIncrementTravId(ptr noundef %0) #24
  %.val31 = load ptr, ptr %15, align 8, !tbaa !102
  %.val30 = load i32, ptr %16, align 8, !tbaa !100
  %27 = getelementptr inbounds nuw i8, ptr %.val31, i64 32
  store i32 %.val30, ptr %27, align 8, !tbaa !101
  %28 = getelementptr i8, ptr %22, i64 4
  %.val2833 = load i32, ptr %28, align 4, !tbaa !33
  %29 = icmp sgt i32 %.val2833, 0
  br i1 %29, label %.lr.ph, label %.critedge2

.lr.ph:                                           ; preds = %18
  %30 = getelementptr i8, ptr %22, i64 8
  br label %31

31:                                               ; preds = %.lr.ph, %31
  %indvars.iv = phi i64 [ 0, %.lr.ph ], [ %indvars.iv.next, %31 ]
  %.val29 = load ptr, ptr %30, align 8, !tbaa !37
  %32 = getelementptr inbounds nuw i32, ptr %.val29, i64 %indvars.iv
  %33 = load i32, ptr %32, align 4, !tbaa !29
  %.val32 = load ptr, ptr %17, align 8, !tbaa !50
  %34 = getelementptr i8, ptr %.val32, i64 8
  %.val32.val = load ptr, ptr %34, align 8, !tbaa !15
  %35 = sext i32 %33 to i64
  %36 = getelementptr inbounds ptr, ptr %.val32.val, i64 %35
  %37 = load ptr, ptr %36, align 8, !tbaa !18
  %38 = getelementptr i8, ptr %37, i64 8
  %.val27 = load ptr, ptr %38, align 8, !tbaa !55
  %39 = ptrtoint ptr %.val27 to i64
  %40 = and i64 %39, -2
  %41 = inttoptr i64 %40 to ptr
  tail call void @Aig_ManSupportNodes_rec(ptr noundef nonnull %0, ptr noundef %41, ptr noundef nonnull %23)
  %indvars.iv.next = add nuw nsw i64 %indvars.iv, 1
  %.val28 = load i32, ptr %28, align 4, !tbaa !33
  %42 = sext i32 %.val28 to i64
  %43 = icmp slt i64 %indvars.iv.next, %42
  br i1 %43, label %31, label %.critedge2, !llvm.loop !108

.critedge2:                                       ; preds = %31, %18
  %44 = icmp eq i32 %20, %19
  br i1 %44, label %45, label %.Vec_PtrGrow.exit11_crit_edge.i

.Vec_PtrGrow.exit11_crit_edge.i:                  ; preds = %.critedge2
  %.pre.i = load ptr, ptr %12, align 8, !tbaa !15
  br label %Vec_PtrPush.exit

45:                                               ; preds = %.critedge2
  %46 = icmp slt i32 %19, 16
  br i1 %46, label %47, label %54

47:                                               ; preds = %45
  %48 = load ptr, ptr %12, align 8, !tbaa !15
  %.not9.i.i = icmp eq ptr %48, null
  br i1 %.not9.i.i, label %51, label %49

49:                                               ; preds = %47
  %50 = tail call dereferenceable_or_null(128) ptr @realloc(ptr noundef nonnull %48, i64 noundef 128) #25
  br label %Vec_PtrGrow.exit.i

51:                                               ; preds = %47
  %52 = tail call noalias dereferenceable_or_null(128) ptr @malloc(i64 noundef 128) #23
  br label %Vec_PtrGrow.exit.i

Vec_PtrGrow.exit.i:                               ; preds = %51, %49
  %53 = phi ptr [ %50, %49 ], [ %52, %51 ]
  store ptr %53, ptr %12, align 8, !tbaa !15
  store i32 16, ptr %4, align 8, !tbaa !14
  br label %Vec_PtrPush.exit

54:                                               ; preds = %45
  %55 = shl nuw nsw i32 %19, 1
  %56 = load ptr, ptr %12, align 8, !tbaa !15
  %.not9.i10.i = icmp eq ptr %56, null
  %57 = zext nneg i32 %55 to i64
  %58 = shl nuw nsw i64 %57, 3
  br i1 %.not9.i10.i, label %61, label %59

59:                                               ; preds = %54
  %60 = tail call ptr @realloc(ptr noundef nonnull %56, i64 noundef %58) #25
  br label %63

61:                                               ; preds = %54
  %62 = tail call noalias ptr @malloc(i64 noundef %58) #23
  br label %63

63:                                               ; preds = %61, %59
  %64 = phi ptr [ %60, %59 ], [ %62, %61 ]
  store ptr %64, ptr %12, align 8, !tbaa !15
  store i32 %55, ptr %4, align 8, !tbaa !14
  br label %Vec_PtrPush.exit

Vec_PtrPush.exit:                                 ; preds = %.Vec_PtrGrow.exit11_crit_edge.i, %Vec_PtrGrow.exit.i, %63
  %65 = phi i32 [ %19, %.Vec_PtrGrow.exit11_crit_edge.i ], [ %55, %63 ], [ 16, %Vec_PtrGrow.exit.i ]
  %66 = phi ptr [ %.pre.i, %.Vec_PtrGrow.exit11_crit_edge.i ], [ %64, %63 ], [ %53, %Vec_PtrGrow.exit.i ]
  %67 = add nuw nsw i32 %20, 1
  store i32 %67, ptr %6, align 4, !tbaa !12
  %68 = zext nneg i32 %20 to i64
  %69 = getelementptr inbounds nuw ptr, ptr %66, i64 %68
  store ptr %23, ptr %69, align 8, !tbaa !18
  %indvars.iv.next40 = add nuw nsw i64 %indvars.iv39, 1
  %.val = load i32, ptr %3, align 4, !tbaa !12
  %70 = sext i32 %.val to i64
  %71 = icmp slt i64 %indvars.iv.next40, %70
  br i1 %71, label %18, label %.critedge, !llvm.loop !109

.critedge:                                        ; preds = %Vec_PtrPush.exit, %Vec_PtrAlloc.exit
  tail call void @Aig_ManCleanCioIds(ptr noundef %0) #24
  ret ptr %4
}